target datalayout = "e-m:e-p270:32:32-p271:32:32-p272:64:64-i64:64-i128:128-f80:128-n8:16:32:64-S128"
target triple = "x86_64-pc-linux-gnu"

%struct.SRP_user_pwd_st = type { ptr, ptr, ptr, ptr, ptr, ptr }

@.str = private unnamed_addr constant [32 x i8] c"../openssl/crypto/srp/srp_vfy.c\00", align 1

; Function Attrs: nounwind uwtable
define i32 @SRP_user_pwd_set1_ids(ptr noundef %0, ptr noundef %1, ptr noundef %2) #0 {
  %4 = alloca i32, align 4
  %5 = alloca ptr, align 8
  %6 = alloca ptr, align 8
  %7 = alloca ptr, align 8
  store ptr %0, ptr %5, align 8, !tbaa !3
  store ptr %1, ptr %6, align 8, !tbaa !18
  store ptr %2, ptr %7, align 8, !tbaa !18
  %8 = load ptr, ptr %5, align 8, !tbaa !3
  %9 = getelementptr inbounds nuw %struct.SRP_user_pwd_st, ptr %8, i32 0, i32 0
  %10 = load ptr, ptr %9, align 8, !tbaa !13
  call void @CRYPTO_free(ptr noundef %10, ptr noundef @.str, i32 noundef 215)
  %11 = load ptr, ptr %5, align 8, !tbaa !3
  %12 = getelementptr inbounds nuw %struct.SRP_user_pwd_st, ptr %11, i32 0, i32 5
  %13 = load ptr, ptr %12, align 8, !tbaa !14
  call void @CRYPTO_free(ptr noundef %13, ptr noundef @.str, i32 noundef 216)
  %14 = load ptr, ptr %5, align 8, !tbaa !3
  %15 = getelementptr inbounds nuw %struct.SRP_user_pwd_st, ptr %14, i32 0, i32 0
  store ptr null, ptr %15, align 8, !tbaa !13
  %16 = load ptr, ptr %5, align 8, !tbaa !3
  %17 = getelementptr inbounds nuw %struct.SRP_user_pwd_st, ptr %16, i32 0, i32 5
  store ptr null, ptr %17, align 8, !tbaa !14
  %18 = load ptr, ptr %6, align 8, !tbaa !18
  %19 = icmp ne ptr %18, null
  br i1 %19, label %20, label %27

20:                                               ; preds = %3
  %21 = load ptr, ptr %6, align 8, !tbaa !18
  %22 = call noalias ptr @CRYPTO_strdup(ptr noundef %21, ptr noundef @.str, i32 noundef 219)
  %23 = load ptr, ptr %5, align 8, !tbaa !3
  %24 = getelementptr inbounds nuw %struct.SRP_user_pwd_st, ptr %23, i32 0, i32 0
  store ptr %22, ptr %24, align 8, !tbaa !13
  %25 = icmp eq ptr null, %22
  br i1 %25, label %26, label %27

26:                                               ; preds = %20
  store i32 0, ptr %4, align 4
  br label %39

27:                                               ; preds = %20, %3
  %28 = load ptr, ptr %7, align 8, !tbaa !18
  %29 = icmp eq ptr %28, null
  br i1 %29, label %36, label %30

30:                                               ; preds = %27
  %31 = load ptr, ptr %7, align 8, !tbaa !18
  %32 = call noalias ptr @CRYPTO_strdup(ptr noundef %31, ptr noundef @.str, i32 noundef 221)
  %33 = load ptr, ptr %5, align 8, !tbaa !3
  %34 = getelementptr inbounds nuw %struct.SRP_user_pwd_st, ptr %33, i32 0, i32 5
  store ptr %32, ptr %34, align 8, !tbaa !14
  %35 = icmp ne ptr null, %32
  br label %36

36:                                               ; preds = %30, %27
  %37 = phi i1 [ true, %27 ], [ %35, %30 ]
  %38 = zext i1 %37 to i32
  store i32 %38, ptr %4, align 4
  br label %39

39:                                               ; preds = %36, %26
  %40 = load i32, ptr %4, align 4
  ret i32 %40
}