; Function Attrs: nounwind uwtable
define range(i32 0, 2) i32 @SRP_user_pwd_set1_ids(ptr noundef captures(none) %0, ptr noundef %1, ptr noundef %2) local_unnamed_addr #0 {
  %4 = load ptr, ptr %0, align 8, !tbaa !11
  tail call void @CRYPTO_free(ptr noundef %4, ptr noundef nonnull @.str, i32 noundef 215) #7
  %5 = getelementptr inbounds nuw i8, ptr %0, i64 40
  %6 = load ptr, ptr %5, align 8, !tbaa !12
  tail call void @CRYPTO_free(ptr noundef %6, ptr noundef nonnull @.str, i32 noundef 216) #7
  store ptr null, ptr %0, align 8, !tbaa !11
  store ptr null, ptr %5, align 8, !tbaa !12
  %.not = icmp eq ptr %1, null
  br i1 %.not, label %10, label %7

7:                                                ; preds = %3
  %8 = tail call noalias ptr @CRYPTO_strdup(ptr noundef nonnull %1, ptr noundef nonnull @.str, i32 noundef 219) #7
  store ptr %8, ptr %0, align 8, !tbaa !11
  %9 = icmp eq ptr %8, null
  br i1 %9, label %16, label %10

10:                                               ; preds = %7, %3
  %11 = icmp eq ptr %2, null
  br i1 %11, label %16, label %12

12:                                               ; preds = %10
  %13 = tail call noalias ptr @CRYPTO_strdup(ptr noundef nonnull %2, ptr noundef nonnull @.str, i32 noundef 221) #7
  store ptr %13, ptr %5, align 8, !tbaa !12
  %14 = icmp ne ptr %13, null
  %15 = zext i1 %14 to i32
  br label %16

16:                                               ; preds = %10, %12, %7
  %.0 = phi i32 [ 0, %7 ], [ 1, %10 ], [ %15, %12 ]
  ret i32 %.0
}